; Function Attrs: nounwind uwtable
define void @Sfm_DecAddNode(ptr noundef %0, ptr noundef captures(none) %1, ptr noundef captures(none) %2, i32 noundef %3, i32 noundef %4) local_unnamed_addr #2 {
  %.not = icmp eq i32 %4, 0
  br i1 %.not, label %.critedge, label %6

6:                                                ; preds = %5
  %7 = getelementptr i8, ptr %1, i64 4
  %.val = load i32, ptr %7, align 4, !tbaa !85
  %8 = getelementptr i8, ptr %0, i64 16
  %.val12 = load i32, ptr %8, align 8, !tbaa !129
  %9 = getelementptr inbounds nuw i8, ptr %0, i64 64
  %10 = load i32, ptr %9, align 8, !tbaa !119
  %11 = tail call i32 (ptr, ...) @printf(ptr noundef nonnull dereferenceable(1) @.str.28, i32 noundef %.val, i32 noundef %.val12, i32 noundef %10)
  %12 = load ptr, ptr @stdout, align 8, !tbaa !226
  tail call void @Abc_ObjPrint(ptr noundef %12, ptr noundef %0) #25
  br label %.critedge

.critedge:                                        ; preds = %5, %6
  %13 = getelementptr i8, ptr %0, i64 16
  %.val11 = load i32, ptr %13, align 8, !tbaa !129
  %14 = getelementptr inbounds nuw i8, ptr %1, i64 4
  %15 = load i32, ptr %14, align 4, !tbaa !85
  %16 = load i32, ptr %1, align 8, !tbaa !86
  %17 = icmp eq i32 %15, %16
  br i1 %17, label %18, label %.Vec_IntGrow.exit10_crit_edge.i

.Vec_IntGrow.exit10_crit_edge.i:                  ; preds = %.critedge
  %.phi.trans.insert.i = getelementptr inbounds nuw i8, ptr %1, i64 8
  %.pre.i = load ptr, ptr %.phi.trans.insert.i, align 8, !tbaa !84
  br label %Vec_IntPush.exit

18:                                               ; preds = %.critedge
  %19 = icmp slt i32 %15, 16
  br i1 %19, label %20, label %28

20:                                               ; preds = %18
  %21 = getelementptr inbounds nuw i8, ptr %1, i64 8
  %22 = load ptr, ptr %21, align 8, !tbaa !84
  %.not9.i.i = icmp eq ptr %22, null
  br i1 %.not9.i.i, label %25, label %23

23:                                               ; preds = %20
  %24 = tail call dereferenceable_or_null(64) ptr @realloc(ptr noundef nonnull %22, i64 noundef 64) #26
  br label %Vec_IntGrow.exit.i

25:                                               ; preds = %20
  %26 = tail call noalias dereferenceable_or_null(64) ptr @malloc(i64 noundef 64) #27
  br label %Vec_IntGrow.exit.i

Vec_IntGrow.exit.i:                               ; preds = %25, %23
  %27 = phi ptr [ %24, %23 ], [ %26, %25 ]
  store ptr %27, ptr %21, align 8, !tbaa !84
  store i32 16, ptr %1, align 8, !tbaa !86
  br label %Vec_IntPush.exit

28:                                               ; preds = %18
  %29 = shl nuw nsw i32 %15, 1
  %30 = getelementptr inbounds nuw i8, ptr %1, i64 8
  %31 = load ptr, ptr %30, align 8, !tbaa !84
  %.not9.i9.i = icmp eq ptr %31, null
  %32 = zext nneg i32 %29 to i64
  %33 = shl nuw nsw i64 %32, 2
  br i1 %.not9.i9.i, label %36, label %34

34:                                               ; preds = %28
  %35 = tail call ptr @realloc(ptr noundef nonnull %31, i64 noundef %33) #26
  br label %38

36:                                               ; preds = %28
  %37 = tail call noalias ptr @malloc(i64 noundef %33) #27
  br label %38

38:                                               ; preds = %36, %34
  %39 = phi ptr [ %35, %34 ], [ %37, %36 ]
  store ptr %39, ptr %30, align 8, !tbaa !84
  store i32 %29, ptr %1, align 8, !tbaa !86
  br label %Vec_IntPush.exit

Vec_IntPush.exit:                                 ; preds = %.Vec_IntGrow.exit10_crit_edge.i, %Vec_IntGrow.exit.i, %38
  %40 = phi ptr [ %.pre.i, %.Vec_IntGrow.exit10_crit_edge.i ], [ %39, %38 ], [ %27, %Vec_IntGrow.exit.i ]
  %41 = load i32, ptr %14, align 4, !tbaa !85
  %42 = add nsw i32 %41, 1
  store i32 %42, ptr %14, align 4, !tbaa !85
  %43 = sext i32 %41 to i64
  %44 = getelementptr inbounds i32, ptr %40, i64 %43
  store i32 %.val11, ptr %44, align 4, !tbaa !96
  %.not10 = icmp eq i32 %3, 0
  br i1 %.not10, label %45, label %49

45:                                               ; preds = %Vec_IntPush.exit
  %46 = getelementptr inbounds nuw i8, ptr %0, i64 56
  %47 = load ptr, ptr %46, align 8, !tbaa !119
  %48 = tail call i32 @Mio_GateReadValue(ptr noundef %47) #25
  br label %49

49:                                               ; preds = %Vec_IntPush.exit, %45
  %50 = phi i32 [ %48, %45 ], [ -1, %Vec_IntPush.exit ]
  %51 = getelementptr inbounds nuw i8, ptr %2, i64 4
  %52 = load i32, ptr %51, align 4, !tbaa !85
  %53 = load i32, ptr %2, align 8, !tbaa !86
  %54 = icmp eq i32 %52, %53
  br i1 %54, label %55, label %.Vec_IntGrow.exit10_crit_edge.i13

.Vec_IntGrow.exit10_crit_edge.i13:                ; preds = %49
  %.phi.trans.insert.i14 = getelementptr inbounds nuw i8, ptr %2, i64 8
  %.pre.i15 = load ptr, ptr %.phi.trans.insert.i14, align 8, !tbaa !84
  br label %Vec_IntPush.exit19

55:                                               ; preds = %49
  %56 = icmp slt i32 %52, 16
  br i1 %56, label %57, label %65

57:                                               ; preds = %55
  %58 = getelementptr inbounds nuw i8, ptr %2, i64 8
  %59 = load ptr, ptr %58, align 8, !tbaa !84
  %.not9.i.i17 = icmp eq ptr %59, null
  br i1 %.not9.i.i17, label %62, label %60

60:                                               ; preds = %57
  %61 = tail call dereferenceable_or_null(64) ptr @realloc(ptr noundef nonnull %59, i64 noundef 64) #26
  br label %Vec_IntGrow.exit.i18

62:                                               ; preds = %57
  %63 = tail call noalias dereferenceable_or_null(64) ptr @malloc(i64 noundef 64) #27
  br label %Vec_IntGrow.exit.i18

Vec_IntGrow.exit.i18:                             ; preds = %62, %60
  %64 = phi ptr [ %61, %60 ], [ %63, %62 ]
  store ptr %64, ptr %58, align 8, !tbaa !84
  store i32 16, ptr %2, align 8, !tbaa !86
  br label %Vec_IntPush.exit19

65:                                               ; preds = %55
  %66 = shl nuw nsw i32 %52, 1
  %67 = getelementptr inbounds nuw i8, ptr %2, i64 8
  %68 = load ptr, ptr %67, align 8, !tbaa !84
  %.not9.i9.i16 = icmp eq ptr %68, null
  %69 = zext nneg i32 %66 to i64
  %70 = shl nuw nsw i64 %69, 2
  br i1 %.not9.i9.i16, label %73, label %71

71:                                               ; preds = %65
  %72 = tail call ptr @realloc(ptr noundef nonnull %68, i64 noundef %70) #26
  br label %75

73:                                               ; preds = %65
  %74 = tail call noalias ptr @malloc(i64 noundef %70) #27
  br label %75

75:                                               ; preds = %73, %71
  %76 = phi ptr [ %72, %71 ], [ %74, %73 ]
  store ptr %76, ptr %67, align 8, !tbaa !84
  store i32 %66, ptr %2, align 8, !tbaa !86
  br label %Vec_IntPush.exit19

Vec_IntPush.exit19:                               ; preds = %.Vec_IntGrow.exit10_crit_edge.i13, %Vec_IntGrow.exit.i18, %75
  %77 = phi ptr [ %.pre.i15, %.Vec_IntGrow.exit10_crit_edge.i13 ], [ %76, %75 ], [ %64, %Vec_IntGrow.exit.i18 ]
  %78 = load i32, ptr %51, align 4, !tbaa !85
  %79 = add nsw i32 %78, 1
  store i32 %79, ptr %51, align 4, !tbaa !85
  %80 = sext i32 %78 to i64
  %81 = getelementptr inbounds i32, ptr %77, i64 %80
  store i32 %50, ptr %81, align 4, !tbaa !96
  ret void
}